; Function Attrs: nofree norecurse nosync nounwind sspstrong memory(read, argmem: readwrite, inaccessiblemem: none) uwtable
define dso_local range(i64 -1152921504606846976, 1152921504606846976) i64 @rb_st_values_check(ptr noundef readonly captures(none) %0, ptr noundef %1, i64 noundef %2, i64 noundef %3) local_unnamed_addr #9 {
  %5 = getelementptr inbounds nuw i8, ptr %0, i64 48
  %6 = load ptr, ptr %5, align 8, !tbaa !26
  %7 = getelementptr i64, ptr %1, i64 %2
  %8 = getelementptr inbounds nuw i8, ptr %0, i64 40
  %9 = load i64, ptr %8, align 8, !tbaa !31
  %10 = getelementptr inbounds nuw i8, ptr %0, i64 32
  %11 = load i64, ptr %10, align 8, !tbaa !32
  %12 = icmp uge i64 %11, %9
  %.idx.mask.i = and i64 %2, 2305843009213693951
  %13 = icmp eq i64 %.idx.mask.i, 0
  %or.cond18.i = or i1 %13, %12
  br i1 %or.cond18.i, label %st_general_values.exit, label %.lr.ph.i

.lr.ph.i:                                         ; preds = %4, %21
  %.020.i = phi ptr [ %.1.i, %21 ], [ %1, %4 ]
  %.01719.i = phi i64 [ %22, %21 ], [ %11, %4 ]
  %14 = getelementptr %struct.st_table_entry, ptr %6, i64 %.01719.i
  %15 = load i64, ptr %14, align 8, !tbaa !33
  %16 = icmp eq i64 %15, -1
  br i1 %16, label %21, label %17

17:                                               ; preds = %.lr.ph.i
  %18 = getelementptr inbounds nuw i8, ptr %14, i64 16
  %19 = load i64, ptr %18, align 8, !tbaa !48
  %20 = getelementptr i8, ptr %.020.i, i64 8
  store i64 %19, ptr %.020.i, align 8, !tbaa !7
  br label %21

21:                                               ; preds = %17, %.lr.ph.i
  %.1.i = phi ptr [ %.020.i, %.lr.ph.i ], [ %20, %17 ]
  %22 = add nuw i64 %.01719.i, 1
  %23 = icmp uge i64 %22, %9
  %24 = icmp eq ptr %.1.i, %7
  %or.cond.i = select i1 %23, i1 true, i1 %24
  br i1 %or.cond.i, label %st_general_values.exit, label %.lr.ph.i, !llvm.loop !67

st_general_values.exit:                           ; preds = %21, %4
  %.0.lcssa.i = phi ptr [ %1, %4 ], [ %.1.i, %21 ]
  %25 = ptrtoint ptr %.0.lcssa.i to i64
  %26 = ptrtoint ptr %1 to i64
  %27 = sub i64 %25, %26
  %28 = ashr exact i64 %27, 3
  ret i64 %28
}